target datalayout = "e-m:e-p270:32:32-p271:32:32-p272:64:64-i64:64-i128:128-f80:128-n8:16:32:64-S128"
target triple = "x86_64-pc-linux-gnu"

%struct.Vec_Int_t_ = type { i32, i32, ptr }
%struct.Bmc_AndPar_t_ = type { i32, i32, i32, i32, i32, i32, i32, i32, i32, i32, i32, i32, i32, i32, i32, i32, i32, i32, i32, ptr }
%struct.Bmcs_Man_t_ = type { ptr, ptr, ptr, ptr, %struct.Vec_Ptr_t_, %struct.Vec_Int_t_, %struct.Vec_Int_t_, [100 x ptr], i32, i32, i32, i64, i64, i64, i64 }
%struct.Vec_Ptr_t_ = type { i32, i32, ptr }

@.str.12 = private unnamed_addr constant [5 x i8] c"%s =\00", align 1
@.str.13 = private unnamed_addr constant [15 x i8] c"Unfolding     \00", align 1
@.str.14 = private unnamed_addr constant [22 x i8] c"%9.2f sec (%6.2f %%)\0A\00", align 1
@.str.15 = private unnamed_addr constant [15 x i8] c"CNF generation\00", align 1
@.str.16 = private unnamed_addr constant [15 x i8] c"SAT solving   \00", align 1
@.str.17 = private unnamed_addr constant [15 x i8] c"Other         \00", align 1
@.str.18 = private unnamed_addr constant [15 x i8] c"TOTAL         \00", align 1

; Function Attrs: nounwind uwtable
define void @Bmcs_ManPrintTime(ptr noundef %0) #0 {
  %2 = alloca ptr, align 8
  %3 = alloca i64, align 8
  store ptr %0, ptr %2, align 8
  %4 = load ptr, ptr %2, align 8
  %5 = getelementptr inbounds %struct.Bmcs_Man_t_, ptr %4, i32 0, i32 11
  %6 = load i64, ptr %5, align 8
  %7 = load ptr, ptr %2, align 8
  %8 = getelementptr inbounds %struct.Bmcs_Man_t_, ptr %7, i32 0, i32 12
  %9 = load i64, ptr %8, align 8
  %10 = add nsw i64 %6, %9
  %11 = load ptr, ptr %2, align 8
  %12 = getelementptr inbounds %struct.Bmcs_Man_t_, ptr %11, i32 0, i32 13
  %13 = load i64, ptr %12, align 8
  %14 = add nsw i64 %10, %13
  %15 = load ptr, ptr %2, align 8
  %16 = getelementptr inbounds %struct.Bmcs_Man_t_, ptr %15, i32 0, i32 14
  %17 = load i64, ptr %16, align 8
  %18 = add nsw i64 %14, %17
  store i64 %18, ptr %3, align 8
  %19 = load ptr, ptr %2, align 8
  %20 = getelementptr inbounds %struct.Bmcs_Man_t_, ptr %19, i32 0, i32 0
  %21 = load ptr, ptr %20, align 8
  %22 = getelementptr inbounds %struct.Bmc_AndPar_t_, ptr %21, i32 0, i32 13
  %23 = load i32, ptr %22, align 4
  %24 = icmp ne i32 %23, 0
  br i1 %24, label %26, label %25

25:                                               ; preds = %1
  br label %128

26:                                               ; preds = %1
  call void (i32, ptr, ...) @Abc_Print(i32 noundef 1, ptr noundef @.str.12, ptr noundef @.str.13)
  %27 = load ptr, ptr %2, align 8
  %28 = getelementptr inbounds %struct.Bmcs_Man_t_, ptr %27, i32 0, i32 11
  %29 = load i64, ptr %28, align 8
  %30 = sitofp i64 %29 to double
  %31 = fmul double 1.000000e+00, %30
  %32 = fdiv double %31, 1.000000e+06
  %33 = load i64, ptr %3, align 8
  %34 = sitofp i64 %33 to double
  %35 = fcmp une double %34, 0.000000e+00
  br i1 %35, label %36, label %45

36:                                               ; preds = %26
  %37 = load ptr, ptr %2, align 8
  %38 = getelementptr inbounds %struct.Bmcs_Man_t_, ptr %37, i32 0, i32 11
  %39 = load i64, ptr %38, align 8
  %40 = sitofp i64 %39 to double
  %41 = fmul double 1.000000e+02, %40
  %42 = load i64, ptr %3, align 8
  %43 = sitofp i64 %42 to double
  %44 = fdiv double %41, %43
  br label %46

45:                                               ; preds = %26
  br label %46

46:                                               ; preds = %45, %36
  %47 = phi double [ %44, %36 ], [ 0.000000e+00, %45 ]
  call void (i32, ptr, ...) @Abc_Print(i32 noundef 1, ptr noundef @.str.14, double noundef %32, double noundef %47)
  call void (i32, ptr, ...) @Abc_Print(i32 noundef 1, ptr noundef @.str.12, ptr noundef @.str.15)
  %48 = load ptr, ptr %2, align 8
  %49 = getelementptr inbounds %struct.Bmcs_Man_t_, ptr %48, i32 0, i32 12
  %50 = load i64, ptr %49, align 8
  %51 = sitofp i64 %50 to double
  %52 = fmul double 1.000000e+00, %51
  %53 = fdiv double %52, 1.000000e+06
  %54 = load i64, ptr %3, align 8
  %55 = sitofp i64 %54 to double
  %56 = fcmp une double %55, 0.000000e+00
  br i1 %56, label %57, label %66

57:                                               ; preds = %46
  %58 = load ptr, ptr %2, align 8
  %59 = getelementptr inbounds %struct.Bmcs_Man_t_, ptr %58, i32 0, i32 12
  %60 = load i64, ptr %59, align 8
  %61 = sitofp i64 %60 to double
  %62 = fmul double 1.000000e+02, %61
  %63 = load i64, ptr %3, align 8
  %64 = sitofp i64 %63 to double
  %65 = fdiv double %62, %64
  br label %67

66:                                               ; preds = %46
  br label %67

67:                                               ; preds = %66, %57
  %68 = phi double [ %65, %57 ], [ 0.000000e+00, %66 ]
  call void (i32, ptr, ...) @Abc_Print(i32 noundef 1, ptr noundef @.str.14, double noundef %53, double noundef %68)
  call void (i32, ptr, ...) @Abc_Print(i32 noundef 1, ptr noundef @.str.12, ptr noundef @.str.16)
  %69 = load ptr, ptr %2, align 8
  %70 = getelementptr inbounds %struct.Bmcs_Man_t_, ptr %69, i32 0, i32 13
  %71 = load i64, ptr %70, align 8
  %72 = sitofp i64 %71 to double
  %73 = fmul double 1.000000e+00, %72
  %74 = fdiv double %73, 1.000000e+06
  %75 = load i64, ptr %3, align 8
  %76 = sitofp i64 %75 to double
  %77 = fcmp une double %76, 0.000000e+00
  br i1 %77, label %78, label %87

78:                                               ; preds = %67
  %79 = load ptr, ptr %2, align 8
  %80 = getelementptr inbounds %struct.Bmcs_Man_t_, ptr %79, i32 0, i32 13
  %81 = load i64, ptr %80, align 8
  %82 = sitofp i64 %81 to double
  %83 = fmul double 1.000000e+02, %82
  %84 = load i64, ptr %3, align 8
  %85 = sitofp i64 %84 to double
  %86 = fdiv double %83, %85
  br label %88

87:                                               ; preds = %67
  br label %88

88:                                               ; preds = %87, %78
  %89 = phi double [ %86, %78 ], [ 0.000000e+00, %87 ]
  call void (i32, ptr, ...) @Abc_Print(i32 noundef 1, ptr noundef @.str.14, double noundef %74, double noundef %89)
  call void (i32, ptr, ...) @Abc_Print(i32 noundef 1, ptr noundef @.str.12, ptr noundef @.str.17)
  %90 = load ptr, ptr %2, align 8
  %91 = getelementptr inbounds %struct.Bmcs_Man_t_, ptr %90, i32 0, i32 14
  %92 = load i64, ptr %91, align 8
  %93 = sitofp i64 %92 to double
  %94 = fmul double 1.000000e+00, %93
  %95 = fdiv double %94, 1.000000e+06
  %96 = load i64, ptr %3, align 8
  %97 = sitofp i64 %96 to double
  %98 = fcmp une double %97, 0.000000e+00
  br i1 %98, label %99, label %108

99:                                               ; preds = %88
  %100 = load ptr, ptr %2, align 8
  %101 = getelementptr inbounds %struct.Bmcs_Man_t_, ptr %100, i32 0, i32 14
  %102 = load i64, ptr %101, align 8
  %103 = sitofp i64 %102 to double
  %104 = fmul double 1.000000e+02, %103
  %105 = load i64, ptr %3, align 8
  %106 = sitofp i64 %105 to double
  %107 = fdiv double %104, %106
  br label %109

108:                                              ; preds = %88
  br label %109

109:                                              ; preds = %108, %99
  %110 = phi double [ %107, %99 ], [ 0.000000e+00, %108 ]
  call void (i32, ptr, ...) @Abc_Print(i32 noundef 1, ptr noundef @.str.14, double noundef %95, double noundef %110)
  call void (i32, ptr, ...) @Abc_Print(i32 noundef 1, ptr noundef @.str.12, ptr noundef @.str.18)
  %111 = load i64, ptr %3, align 8
  %112 = sitofp i64 %111 to double
  %113 = fmul double 1.000000e+00, %112
  %114 = fdiv double %113, 1.000000e+06
  %115 = load i64, ptr %3, align 8
  %116 = sitofp i64 %115 to double
  %117 = fcmp une double %116, 0.000000e+00
  br i1 %117, label %118, label %125

118:                                              ; preds = %109
  %119 = load i64, ptr %3, align 8
  %120 = sitofp i64 %119 to double
  %121 = fmul double 1.000000e+02, %120
  %122 = load i64, ptr %3, align 8
  %123 = sitofp i64 %122 to double
  %124 = fdiv double %121, %123
  br label %126

125:                                              ; preds = %109
  br label %126

126:                                              ; preds = %125, %118
  %127 = phi double [ %124, %118 ], [ 0.000000e+00, %125 ]
  call void (i32, ptr, ...) @Abc_Print(i32 noundef 1, ptr noundef @.str.14, double noundef %114, double noundef %127)
  br label %128

128:                                              ; preds = %126, %25
  ret void
}