; Function Attrs: nounwind uwtable
define void @Bmcs_ManPrintTime(ptr noundef readonly captures(none) %0) local_unnamed_addr #0 {
  %2 = load ptr, ptr %0, align 8
  %3 = getelementptr inbounds nuw i8, ptr %2, i64 52
  %4 = load i32, ptr %3, align 4
  %.not = icmp eq i32 %4, 0
  br i1 %.not, label %46, label %5

5:                                                ; preds = %1
  %6 = getelementptr inbounds nuw i8, ptr %0, i64 920
  %7 = getelementptr inbounds nuw i8, ptr %0, i64 912
  %8 = getelementptr inbounds nuw i8, ptr %0, i64 904
  %9 = getelementptr inbounds nuw i8, ptr %0, i64 896
  %10 = load i64, ptr %9, align 8
  %11 = load i64, ptr %8, align 8
  %12 = add nsw i64 %11, %10
  %13 = load i64, ptr %7, align 8
  %14 = add nsw i64 %12, %13
  %15 = load i64, ptr %6, align 8
  %16 = add nsw i64 %14, %15
  tail call void (i32, ptr, ...) @Abc_Print(i32 poison, ptr noundef nonnull @.str.12, ptr noundef nonnull @.str.13)
  %17 = load i64, ptr %9, align 8
  %18 = sitofp i64 %17 to double
  %19 = fdiv double %18, 1.000000e+06
  %20 = sitofp i64 %16 to double
  %.not24 = icmp eq i64 %16, 0
  %21 = fmul double %18, 1.000000e+02
  %22 = fdiv double %21, %20
  %23 = select i1 %.not24, double 0.000000e+00, double %22
  tail call void (i32, ptr, ...) @Abc_Print(i32 poison, ptr noundef nonnull @.str.14, double noundef %19, double noundef %23)
  tail call void (i32, ptr, ...) @Abc_Print(i32 poison, ptr noundef nonnull @.str.12, ptr noundef nonnull @.str.15)
  %24 = load i64, ptr %8, align 8
  %25 = sitofp i64 %24 to double
  %26 = fdiv double %25, 1.000000e+06
  %27 = fmul double %25, 1.000000e+02
  %28 = fdiv double %27, %20
  %29 = select i1 %.not24, double 0.000000e+00, double %28
  tail call void (i32, ptr, ...) @Abc_Print(i32 poison, ptr noundef nonnull @.str.14, double noundef %26, double noundef %29)
  tail call void (i32, ptr, ...) @Abc_Print(i32 poison, ptr noundef nonnull @.str.12, ptr noundef nonnull @.str.16)
  %30 = load i64, ptr %7, align 8
  %31 = sitofp i64 %30 to double
  %32 = fdiv double %31, 1.000000e+06
  %33 = fmul double %31, 1.000000e+02
  %34 = fdiv double %33, %20
  %35 = select i1 %.not24, double 0.000000e+00, double %34
  tail call void (i32, ptr, ...) @Abc_Print(i32 poison, ptr noundef nonnull @.str.14, double noundef %32, double noundef %35)
  tail call void (i32, ptr, ...) @Abc_Print(i32 poison, ptr noundef nonnull @.str.12, ptr noundef nonnull @.str.17)
  %36 = load i64, ptr %6, align 8
  %37 = sitofp i64 %36 to double
  %38 = fdiv double %37, 1.000000e+06
  %39 = fmul double %37, 1.000000e+02
  %40 = fdiv double %39, %20
  %41 = select i1 %.not24, double 0.000000e+00, double %40
  tail call void (i32, ptr, ...) @Abc_Print(i32 poison, ptr noundef nonnull @.str.14, double noundef %38, double noundef %41)
  tail call void (i32, ptr, ...) @Abc_Print(i32 poison, ptr noundef nonnull @.str.12, ptr noundef nonnull @.str.18)
  %42 = fdiv double %20, 1.000000e+06
  %43 = fmul double %20, 1.000000e+02
  %44 = fdiv double %43, %20
  %45 = select i1 %.not24, double 0.000000e+00, double %44
  tail call void (i32, ptr, ...) @Abc_Print(i32 poison, ptr noundef nonnull @.str.14, double noundef %42, double noundef %45)
  br label %46

46:                                               ; preds = %1, %5
  ret void
}